target datalayout = "e-m:e-p270:32:32-p271:32:32-p272:64:64-i64:64-i128:128-f80:128-n8:16:32:64-S128"
target triple = "x86_64-pc-linux-gnu"

%struct.slurm_conf_t = type { i64, ptr, i16, ptr, ptr, ptr, ptr, ptr, i16, ptr, ptr, ptr, ptr, ptr, ptr, ptr, i16, ptr, ptr, ptr, ptr, i16, ptr, ptr, ptr, i64, ptr, ptr, ptr, ptr, i16, ptr, ptr, i16, i32, ptr, i32, ptr, i32, i32, ptr, ptr, i64, i64, ptr, i16, i16, ptr, i32, i32, ptr, i32, ptr, i32, i16, i16, i16, ptr, i16, i16, ptr, ptr, i32, i16, i16, ptr, i32, i16, ptr, ptr, ptr, ptr, i16, ptr, ptr, ptr, ptr, i32, ptr, ptr, ptr, ptr, i16, i16, ptr, i32, i32, i32, i16, i16, ptr, ptr, i16, ptr, ptr, i32, i32, i32, i32, i32, i64, i32, i32, i16, ptr, ptr, i32, ptr, ptr, ptr, i16, i32, ptr, ptr, i16, ptr, ptr, i32, i16, ptr, ptr, ptr, ptr, i32, i32, i16, i16, i32, ptr, i16, ptr, i32, i32, i32, i32, i32, i32, ptr, i16, ptr, ptr, i32, i16, ptr, i32, i16, i16, ptr, ptr, ptr, i16, ptr, ptr, ptr, ptr, i16, i16, ptr, i16, ptr, i16, ptr, i16, ptr, i16, ptr, ptr, ptr, ptr, i16, ptr, ptr, ptr, i32, ptr, i32, ptr, ptr, i16, ptr, ptr, i32, i16, ptr, ptr, i16, i16, ptr, i16, ptr, ptr, ptr, i32, ptr, i16, i16, ptr, ptr, ptr, ptr, ptr, ptr, ptr, ptr, i16, i32, i16, ptr, ptr, ptr, ptr, i32, ptr, ptr, ptr, i16, ptr, ptr, ptr, i16, ptr, i16, ptr, i16, i16, ptr }
%struct.job_record = type { i32, ptr, ptr, ptr, ptr, i16, i32, i32, i32, ptr, i32, ptr, ptr, i16, ptr, double, i64, ptr, ptr, ptr, ptr, ptr, ptr, i32, ptr, i32, i64, i64, i32, i32, ptr, i16, i64, i64, i8, i32, ptr, ptr, ptr, ptr, ptr, ptr, ptr, ptr, i32, ptr, ptr, i32, ptr, i32, ptr, i32, ptr, i32, ptr, ptr, ptr, ptr, ptr, ptr, i32, i16, i64, ptr, ptr, ptr, ptr, %struct.acct_policy_limit_set_t, i16, ptr, ptr, ptr, ptr, ptr, i32, ptr, ptr, ptr, ptr, ptr, i32, i32, ptr, ptr, ptr, i16, ptr, ptr, i8, ptr, ptr, i64, i64, i8, i32, i32, i8, i32, ptr, i32, i64, i32, ptr, ptr, ptr, i8, i16, i64, i32, ptr, ptr, ptr, ptr, ptr, i16, i32, ptr, ptr, ptr, ptr, i32, ptr, i32, i16, i64, ptr, i32, i32, ptr, i64, ptr, ptr, i64, i32, i32, i64, i32, i32, ptr, ptr, ptr, ptr, ptr, ptr, ptr, ptr, ptr, ptr, ptr, ptr, i32, ptr, i16, i16, i16, i16, ptr, i32, i32, i8, i64 }
%struct.acct_policy_limit_set_t = type { i16, i16, ptr }
%struct.slurm_step_id_msg = type { i64, i32, i32, i32 }
%struct.agent_arg_t = type { i32, i16, i32, i8, ptr, ptr, i16, i32, ptr, i16 }
%struct.stepmgr_ops_t = type { ptr, ptr, ptr, ptr, ptr, ptr, ptr, ptr, ptr, ptr }

@.str = private unnamed_addr constant [12 x i8] c"srun_comm.c\00", align 1
@slurm_conf = external global %struct.slurm_conf_t, align 8
@stepmgr_ops = external global ptr, align 8
@__func__.srun_job_complete = private unnamed_addr constant [18 x i8] c"srun_job_complete\00", align 1
@__func__._srun_agent_launch = private unnamed_addr constant [19 x i8] c"_srun_agent_launch\00", align 1

; Function Attrs: nounwind uwtable
define internal void @_srun_agent_launch(ptr noundef %0, ptr noundef %1, i32 noundef %2, ptr noundef %3, i32 noundef %4, i16 noundef zeroext %5) #0 {
  %7 = alloca ptr, align 8
  %8 = alloca ptr, align 8
  %9 = alloca i32, align 4
  %10 = alloca ptr, align 8
  %11 = alloca i32, align 4
  %12 = alloca i16, align 2
  %13 = alloca ptr, align 8
  store ptr %0, ptr %7, align 8
  store ptr %1, ptr %8, align 8
  store i32 %2, ptr %9, align 4
  store ptr %3, ptr %10, align 8
  store i32 %4, ptr %11, align 4
  store i16 %5, ptr %12, align 2
  call void @llvm.lifetime.start.p0(i64 8, ptr %13) #6
  %14 = call ptr @slurm_xcalloc(i64 noundef 1, i64 noundef 56, i1 noundef zeroext true, i1 noundef zeroext false, ptr noundef @.str, i32 noundef 61, ptr noundef @__func__._srun_agent_launch)
  store ptr %14, ptr %13, align 8
  %15 = load ptr, ptr %13, align 8
  %16 = getelementptr inbounds nuw %struct.agent_arg_t, ptr %15, i32 0, i32 0
  store i32 1, ptr %16, align 8
  %17 = load ptr, ptr %13, align 8
  %18 = getelementptr inbounds nuw %struct.agent_arg_t, ptr %17, i32 0, i32 1
  store i16 0, ptr %18, align 4
  %19 = load ptr, ptr %7, align 8
  %20 = load ptr, ptr %13, align 8
  %21 = getelementptr inbounds nuw %struct.agent_arg_t, ptr %20, i32 0, i32 4
  store ptr %19, ptr %21, align 8
  %22 = load ptr, ptr %8, align 8
  %23 = call ptr @hostlist_create(ptr noundef %22)
  %24 = load ptr, ptr %13, align 8
  %25 = getelementptr inbounds nuw %struct.agent_arg_t, ptr %24, i32 0, i32 5
  store ptr %23, ptr %25, align 8
  %26 = load i32, ptr %9, align 4
  %27 = load ptr, ptr %13, align 8
  %28 = getelementptr inbounds nuw %struct.agent_arg_t, ptr %27, i32 0, i32 7
  store i32 %26, ptr %28, align 4
  %29 = load ptr, ptr %10, align 8
  %30 = load ptr, ptr %13, align 8
  %31 = getelementptr inbounds nuw %struct.agent_arg_t, ptr %30, i32 0, i32 8
  store ptr %29, ptr %31, align 8
  %32 = load ptr, ptr %13, align 8
  %33 = load i32, ptr %11, align 4
  call void @set_agent_arg_r_uid(ptr noundef %32, i32 noundef %33)
  %34 = load i16, ptr %12, align 2
  %35 = zext i16 %34 to i32
  %36 = icmp slt i32 11008, %35
  br i1 %36, label %37, label %38

37:                                               ; preds = %6
  br label %41

38:                                               ; preds = %6
  %39 = load i16, ptr %12, align 2
  %40 = zext i16 %39 to i32
  br label %41

41:                                               ; preds = %38, %37
  %42 = phi i32 [ 11008, %37 ], [ %40, %38 ]
  %43 = trunc i32 %42 to i16
  %44 = load ptr, ptr %13, align 8
  %45 = getelementptr inbounds nuw %struct.agent_arg_t, ptr %44, i32 0, i32 6
  store i16 %43, ptr %45, align 8
  %46 = load ptr, ptr @stepmgr_ops, align 8
  %47 = getelementptr inbounds nuw %struct.stepmgr_ops_t, ptr %46, i32 0, i32 8
  %48 = load ptr, ptr %47, align 8
  %49 = load ptr, ptr %13, align 8
  call void %48(ptr noundef %49)
  call void @llvm.lifetime.end.p0(i64 8, ptr %13) #6
  ret void
}

; Function Attrs: nounwind uwtable
define dso_local void @srun_job_complete(ptr noundef %0) #0 {
  %2 = alloca ptr, align 8
  %3 = alloca i8, align 1
  %4 = alloca ptr, align 8
  %5 = alloca ptr, align 8
  %6 = alloca ptr, align 8
  store ptr %0, ptr %2, align 8
  call void @llvm.lifetime.start.p0(i64 1, ptr %3) #6
  store i8 1, ptr %3, align 1
  %7 = load ptr, ptr %2, align 8
  %8 = getelementptr inbounds nuw %struct.job_record, ptr %7, i32 0, i32 128
  %9 = load ptr, ptr %8, align 8
  %10 = call i32 @list_for_each(ptr noundef %9, ptr noundef @_srun_job_complete, ptr noundef null)
  %11 = call zeroext i1 @running_in_slurmctld()
  br i1 %11, label %12, label %42

12:                                               ; preds = %1
  %13 = load ptr, ptr %2, align 8
  %14 = getelementptr inbounds nuw %struct.job_record, ptr %13, i32 0, i32 14
  %15 = load ptr, ptr %14, align 8
  %16 = icmp ne ptr %15, null
  br i1 %16, label %17, label %42

17:                                               ; preds = %12
  %18 = load ptr, ptr %2, align 8
  %19 = getelementptr inbounds nuw %struct.job_record, ptr %18, i32 0, i32 16
  %20 = load i64, ptr %19, align 8
  %21 = and i64 %20, 2199023255552
  %22 = icmp ne i64 %21, 0
  br i1 %22, label %23, label %42

23:                                               ; preds = %17
  call void @llvm.lifetime.start.p0(i64 8, ptr %4) #6
  %24 = call ptr @slurm_xcalloc(i64 noundef 1, i64 noundef 24, i1 noundef zeroext true, i1 noundef zeroext false, ptr noundef @.str, i32 noundef 453, ptr noundef @__func__.srun_job_complete)
  store ptr %24, ptr %4, align 8
  %25 = load ptr, ptr %2, align 8
  %26 = getelementptr inbounds nuw %struct.job_record, ptr %25, i32 0, i32 53
  %27 = load i32, ptr %26, align 8
  %28 = load ptr, ptr %4, align 8
  %29 = getelementptr inbounds nuw %struct.slurm_step_id_msg, ptr %28, i32 0, i32 1
  store i32 %27, ptr %29, align 8
  %30 = load ptr, ptr %4, align 8
  %31 = getelementptr inbounds nuw %struct.slurm_step_id_msg, ptr %30, i32 0, i32 3
  store i32 -2, ptr %31, align 8
  %32 = load ptr, ptr %4, align 8
  %33 = getelementptr inbounds nuw %struct.slurm_step_id_msg, ptr %32, i32 0, i32 2
  store i32 -2, ptr %33, align 4
  %34 = load ptr, ptr %2, align 8
  %35 = getelementptr inbounds nuw %struct.job_record, ptr %34, i32 0, i32 14
  %36 = load ptr, ptr %35, align 8
  %37 = load ptr, ptr %4, align 8
  %38 = load i32, ptr getelementptr inbounds nuw (%struct.slurm_conf_t, ptr @slurm_conf, i32 0, i32 175), align 8
  %39 = load ptr, ptr %2, align 8
  %40 = getelementptr inbounds nuw %struct.job_record, ptr %39, i32 0, i32 123
  %41 = load i16, ptr %40, align 4
  call void @_srun_agent_launch(ptr noundef null, ptr noundef %36, i32 noundef 7004, ptr noundef %37, i32 noundef %38, i16 noundef zeroext %41)
  store i8 0, ptr %3, align 1
  call void @llvm.lifetime.end.p0(i64 8, ptr %4) #6
  br label %42

42:                                               ; preds = %23, %17, %12, %1
  %43 = load i8, ptr %3, align 1, !range !8, !noundef !9
  %44 = trunc i8 %43 to i1
  br i1 %44, label %45, label %91

45:                                               ; preds = %42
  %46 = load ptr, ptr %2, align 8
  %47 = getelementptr inbounds nuw %struct.job_record, ptr %46, i32 0, i32 85
  %48 = load i16, ptr %47, align 8
  %49 = zext i16 %48 to i32
  %50 = icmp ne i32 %49, 0
  br i1 %50, label %51, label %91

51:                                               ; preds = %45
  %52 = load ptr, ptr %2, align 8
  %53 = getelementptr inbounds nuw %struct.job_record, ptr %52, i32 0, i32 4
  %54 = load ptr, ptr %53, align 8
  %55 = icmp ne ptr %54, null
  br i1 %55, label %56, label %91

56:                                               ; preds = %51
  %57 = load ptr, ptr %2, align 8
  %58 = getelementptr inbounds nuw %struct.job_record, ptr %57, i32 0, i32 116
  %59 = load ptr, ptr %58, align 8
  %60 = icmp ne ptr %59, null
  br i1 %60, label %61, label %91

61:                                               ; preds = %56
  call void @llvm.lifetime.start.p0(i64 8, ptr %5) #6
  call void @llvm.lifetime.start.p0(i64 8, ptr %6) #6
  %62 = call ptr @slurm_xcalloc(i64 noundef 1, i64 noundef 128, i1 noundef zeroext true, i1 noundef zeroext false, ptr noundef @.str, i32 noundef 471, ptr noundef @__func__.srun_job_complete)
  store ptr %62, ptr %6, align 8
  %63 = load ptr, ptr %6, align 8
  %64 = load ptr, ptr %2, align 8
  %65 = getelementptr inbounds nuw %struct.job_record, ptr %64, i32 0, i32 85
  %66 = load i16, ptr %65, align 8
  %67 = load ptr, ptr %2, align 8
  %68 = getelementptr inbounds nuw %struct.job_record, ptr %67, i32 0, i32 116
  %69 = load ptr, ptr %68, align 8
  call void @slurm_set_addr(ptr noundef %63, i16 noundef zeroext %66, ptr noundef %69)
  %70 = call ptr @slurm_xcalloc(i64 noundef 1, i64 noundef 24, i1 noundef zeroext true, i1 noundef zeroext false, ptr noundef @.str, i32 noundef 473, ptr noundef @__func__.srun_job_complete)
  store ptr %70, ptr %5, align 8
  %71 = load ptr, ptr %2, align 8
  %72 = getelementptr inbounds nuw %struct.job_record, ptr %71, i32 0, i32 53
  %73 = load i32, ptr %72, align 8
  %74 = load ptr, ptr %5, align 8
  %75 = getelementptr inbounds nuw %struct.slurm_step_id_msg, ptr %74, i32 0, i32 1
  store i32 %73, ptr %75, align 8
  %76 = load ptr, ptr %5, align 8
  %77 = getelementptr inbounds nuw %struct.slurm_step_id_msg, ptr %76, i32 0, i32 3
  store i32 -2, ptr %77, align 8
  %78 = load ptr, ptr %5, align 8
  %79 = getelementptr inbounds nuw %struct.slurm_step_id_msg, ptr %78, i32 0, i32 2
  store i32 -2, ptr %79, align 4
  %80 = load ptr, ptr %6, align 8
  %81 = load ptr, ptr %2, align 8
  %82 = getelementptr inbounds nuw %struct.job_record, ptr %81, i32 0, i32 4
  %83 = load ptr, ptr %82, align 8
  %84 = load ptr, ptr %5, align 8
  %85 = load ptr, ptr %2, align 8
  %86 = getelementptr inbounds nuw %struct.job_record, ptr %85, i32 0, i32 150
  %87 = load i32, ptr %86, align 8
  %88 = load ptr, ptr %2, align 8
  %89 = getelementptr inbounds nuw %struct.job_record, ptr %88, i32 0, i32 123
  %90 = load i16, ptr %89, align 4
  call void @_srun_agent_launch(ptr noundef %80, ptr noundef %83, i32 noundef 7004, ptr noundef %84, i32 noundef %87, i16 noundef zeroext %90)
  call void @llvm.lifetime.end.p0(i64 8, ptr %6) #6
  call void @llvm.lifetime.end.p0(i64 8, ptr %5) #6
  br label %91

91:                                               ; preds = %61, %56, %51, %45, %42
  call void @llvm.lifetime.end.p0(i64 1, ptr %3) #6
  ret void
}