; Function Attrs: nounwind uwtable
define dso_local void @srun_job_complete(ptr noundef readonly captures(none) %0) local_unnamed_addr #0 {
  %2 = getelementptr inbounds nuw i8, ptr %0, i64 936
  %3 = load ptr, ptr %2, align 8
  %4 = tail call i32 @list_for_each(ptr noundef %3, ptr noundef nonnull @_srun_job_complete, ptr noundef null) #6
  %5 = tail call zeroext i1 @running_in_slurmctld() #6
  br i1 %5, label %6, label %19

6:                                                ; preds = %1
  %7 = getelementptr inbounds nuw i8, ptr %0, i64 96
  %8 = load ptr, ptr %7, align 8
  %.not = icmp eq ptr %8, null
  br i1 %.not, label %19, label %9

9:                                                ; preds = %6
  %10 = getelementptr inbounds nuw i8, ptr %0, i64 112
  %11 = load i64, ptr %10, align 8
  %12 = and i64 %11, 2199023255552
  %.not25 = icmp eq i64 %12, 0
  br i1 %.not25, label %19, label %.critedge

.critedge:                                        ; preds = %9
  %13 = tail call ptr @slurm_xcalloc(i64 noundef 1, i64 noundef 24, i1 noundef zeroext true, i1 noundef zeroext false, ptr noundef nonnull @.str, i32 noundef 453, ptr noundef nonnull @__func__.srun_job_complete) #6
  %14 = getelementptr inbounds nuw i8, ptr %0, i64 392
  %15 = load i32, ptr %14, align 8
  %16 = getelementptr inbounds nuw i8, ptr %13, i64 8
  store i32 %15, ptr %16, align 8
  %17 = getelementptr inbounds nuw i8, ptr %13, i64 16
  store i32 -2, ptr %17, align 8
  %18 = getelementptr inbounds nuw i8, ptr %13, i64 12
  store i32 -2, ptr %18, align 4
  br label %.sink.split

19:                                               ; preds = %1, %6, %9
  %20 = getelementptr inbounds nuw i8, ptr %0, i64 640
  %21 = load i16, ptr %20, align 8
  %.not26 = icmp eq i16 %21, 0
  br i1 %.not26, label %53, label %22

22:                                               ; preds = %19
  %23 = getelementptr inbounds nuw i8, ptr %0, i64 32
  %24 = load ptr, ptr %23, align 8
  %.not27 = icmp eq ptr %24, null
  br i1 %.not27, label %53, label %25

25:                                               ; preds = %22
  %26 = getelementptr inbounds nuw i8, ptr %0, i64 856
  %27 = load ptr, ptr %26, align 8
  %.not28 = icmp eq ptr %27, null
  br i1 %.not28, label %53, label %28

28:                                               ; preds = %25
  %29 = tail call ptr @slurm_xcalloc(i64 noundef 1, i64 noundef 128, i1 noundef zeroext true, i1 noundef zeroext false, ptr noundef nonnull @.str, i32 noundef 471, ptr noundef nonnull @__func__.srun_job_complete) #6
  %30 = load i16, ptr %20, align 8
  %31 = load ptr, ptr %26, align 8
  tail call void @slurm_set_addr(ptr noundef %29, i16 noundef zeroext %30, ptr noundef %31) #6
  %32 = tail call ptr @slurm_xcalloc(i64 noundef 1, i64 noundef 24, i1 noundef zeroext true, i1 noundef zeroext false, ptr noundef nonnull @.str, i32 noundef 473, ptr noundef nonnull @__func__.srun_job_complete) #6
  %33 = getelementptr inbounds nuw i8, ptr %0, i64 392
  %34 = load i32, ptr %33, align 8
  %35 = getelementptr inbounds nuw i8, ptr %32, i64 8
  store i32 %34, ptr %35, align 8
  %36 = getelementptr inbounds nuw i8, ptr %32, i64 16
  store i32 -2, ptr %36, align 8
  %37 = getelementptr inbounds nuw i8, ptr %32, i64 12
  store i32 -2, ptr %37, align 4
  %38 = getelementptr inbounds nuw i8, ptr %0, i64 1096
  br label %.sink.split

.sink.split:                                      ; preds = %28, %.critedge
  %.sink47 = phi ptr [ null, %.critedge ], [ %29, %28 ]
  %.sink46.in = phi ptr [ %7, %.critedge ], [ %23, %28 ]
  %.sink38 = phi ptr [ %13, %.critedge ], [ %32, %28 ]
  %.sink37.in = phi ptr [ getelementptr inbounds nuw (i8, ptr @slurm_conf, i64 1168), %.critedge ], [ %38, %28 ]
  %.sink37 = load i32, ptr %.sink37.in, align 8
  %.sink46 = load ptr, ptr %.sink46.in, align 8
  %39 = getelementptr inbounds nuw i8, ptr %0, i64 908
  %40 = load i16, ptr %39, align 4
  %41 = tail call ptr @slurm_xcalloc(i64 noundef 1, i64 noundef 56, i1 noundef zeroext true, i1 noundef zeroext false, ptr noundef nonnull @.str, i32 noundef 61, ptr noundef nonnull @__func__._srun_agent_launch) #6
  store i32 1, ptr %41, align 8
  %42 = getelementptr inbounds nuw i8, ptr %41, i64 4
  store i16 0, ptr %42, align 4
  %43 = getelementptr inbounds nuw i8, ptr %41, i64 16
  store ptr %.sink47, ptr %43, align 8
  %44 = tail call ptr @hostlist_create(ptr noundef %.sink46) #6
  %45 = getelementptr inbounds nuw i8, ptr %41, i64 24
  store ptr %44, ptr %45, align 8
  %46 = getelementptr inbounds nuw i8, ptr %41, i64 36
  store i32 7004, ptr %46, align 4
  %47 = getelementptr inbounds nuw i8, ptr %41, i64 40
  store ptr %.sink38, ptr %47, align 8
  tail call void @set_agent_arg_r_uid(ptr noundef nonnull %41, i32 noundef %.sink37) #6
  %48 = tail call i16 @llvm.umin.i16(i16 %40, i16 11008)
  %49 = getelementptr inbounds nuw i8, ptr %41, i64 32
  store i16 %48, ptr %49, align 8
  %50 = load ptr, ptr @stepmgr_ops, align 8
  %51 = getelementptr inbounds nuw i8, ptr %50, i64 64
  %52 = load ptr, ptr %51, align 8
  tail call void %52(ptr noundef nonnull %41) #6
  br label %53

53:                                               ; preds = %.sink.split, %25, %22, %19
  ret void
}